target datalayout = "e-m:e-p270:32:32-p271:32:32-p272:64:64-i64:64-i128:128-f80:128-n8:16:32:64-S128"
target triple = "x86_64-pc-linux-gnu"

%struct._zval_struct = type { %union._zend_value, %union.anon.0, %union.anon.3 }
%union._zend_value = type { i64 }
%union.anon.0 = type { i32 }
%union.anon.3 = type { i32 }
%struct._dom_nnodemap_object = type { ptr, %struct._zval_struct, i32, i32, ptr, ptr, ptr, %struct.php_libxml_cache_tag, ptr, i32, i8 }
%struct.php_libxml_cache_tag = type { i64 }
%struct._xmlNotation = type { ptr, ptr, ptr }

; Function Attrs: nounwind uwtable
define hidden ptr @php_dom_named_node_map_get_named_item(ptr noundef %0, ptr noundef %1, i1 noundef zeroext %2) #0 {
  %4 = alloca ptr, align 8
  %5 = alloca ptr, align 8
  %6 = alloca i8, align 1
  %7 = alloca ptr, align 8
  %8 = alloca ptr, align 8
  %9 = alloca ptr, align 8
  store ptr %0, ptr %4, align 8
  store ptr %1, ptr %5, align 8
  %10 = zext i1 %2 to i8
  store i8 %10, ptr %6, align 1
  store ptr null, ptr %7, align 8
  %11 = load ptr, ptr %4, align 8
  %12 = icmp ne ptr %11, null
  br i1 %12, label %13, label %80

13:                                               ; preds = %3
  %14 = load ptr, ptr %4, align 8
  %15 = getelementptr inbounds %struct._dom_nnodemap_object, ptr %14, i32 0, i32 2
  %16 = load i32, ptr %15, align 8
  %17 = icmp eq i32 %16, 12
  br i1 %17, label %23, label %18

18:                                               ; preds = %13
  %19 = load ptr, ptr %4, align 8
  %20 = getelementptr inbounds %struct._dom_nnodemap_object, ptr %19, i32 0, i32 2
  %21 = load i32, ptr %20, align 8
  %22 = icmp eq i32 %21, 6
  br i1 %22, label %23, label %67

23:                                               ; preds = %18, %13
  %24 = load ptr, ptr %4, align 8
  %25 = getelementptr inbounds %struct._dom_nnodemap_object, ptr %24, i32 0, i32 4
  %26 = load ptr, ptr %25, align 8
  %27 = icmp ne ptr %26, null
  br i1 %27, label %28, label %66

28:                                               ; preds = %23
  %29 = load ptr, ptr %4, align 8
  %30 = getelementptr inbounds %struct._dom_nnodemap_object, ptr %29, i32 0, i32 2
  %31 = load i32, ptr %30, align 8
  %32 = icmp eq i32 %31, 6
  br i1 %32, label %33, label %39

33:                                               ; preds = %28
  %34 = load ptr, ptr %4, align 8
  %35 = getelementptr inbounds %struct._dom_nnodemap_object, ptr %34, i32 0, i32 4
  %36 = load ptr, ptr %35, align 8
  %37 = load ptr, ptr %5, align 8
  %38 = call ptr @xmlHashLookup(ptr noundef %36, ptr noundef %37)
  store ptr %38, ptr %7, align 8
  br label %65

39:                                               ; preds = %28
  %40 = load ptr, ptr %4, align 8
  %41 = getelementptr inbounds %struct._dom_nnodemap_object, ptr %40, i32 0, i32 4
  %42 = load ptr, ptr %41, align 8
  %43 = load ptr, ptr %5, align 8
  %44 = call ptr @xmlHashLookup(ptr noundef %42, ptr noundef %43)
  store ptr %44, ptr %8, align 8
  %45 = load ptr, ptr %8, align 8
  %46 = icmp ne ptr %45, null
  br i1 %46, label %47, label %64

47:                                               ; preds = %39
  %48 = load i8, ptr %6, align 1
  %49 = trunc i8 %48 to i1
  br i1 %49, label %50, label %61

50:                                               ; preds = %47
  %51 = load ptr, ptr %8, align 8
  %52 = getelementptr inbounds %struct._xmlNotation, ptr %51, i32 0, i32 0
  %53 = load ptr, ptr %52, align 8
  %54 = load ptr, ptr %8, align 8
  %55 = getelementptr inbounds %struct._xmlNotation, ptr %54, i32 0, i32 1
  %56 = load ptr, ptr %55, align 8
  %57 = load ptr, ptr %8, align 8
  %58 = getelementptr inbounds %struct._xmlNotation, ptr %57, i32 0, i32 2
  %59 = load ptr, ptr %58, align 8
  %60 = call ptr @create_notation(ptr noundef %53, ptr noundef %56, ptr noundef %59)
  store ptr %60, ptr %7, align 8
  br label %63

61:                                               ; preds = %47
  %62 = load ptr, ptr %8, align 8
  store ptr %62, ptr %7, align 8
  br label %63

63:                                               ; preds = %61, %50
  br label %64

64:                                               ; preds = %63, %39
  br label %65

65:                                               ; preds = %64, %33
  br label %66

66:                                               ; preds = %65, %23
  br label %79

67:                                               ; preds = %18
  %68 = load ptr, ptr %4, align 8
  %69 = getelementptr inbounds %struct._dom_nnodemap_object, ptr %68, i32 0, i32 0
  %70 = load ptr, ptr %69, align 8
  %71 = call ptr @dom_object_get_node(ptr noundef %70)
  store ptr %71, ptr %9, align 8
  %72 = load ptr, ptr %9, align 8
  %73 = icmp ne ptr %72, null
  br i1 %73, label %74, label %78

74:                                               ; preds = %67
  %75 = load ptr, ptr %9, align 8
  %76 = load ptr, ptr %5, align 8
  %77 = call ptr @xmlHasProp(ptr noundef %75, ptr noundef %76)
  store ptr %77, ptr %7, align 8
  br label %78

78:                                               ; preds = %74, %67
  br label %79

79:                                               ; preds = %78, %66
  br label %80

80:                                               ; preds = %79, %3
  %81 = load ptr, ptr %7, align 8
  ret ptr %81
}